target datalayout = "e-m:e-p270:32:32-p271:32:32-p272:64:64-i64:64-i128:128-f80:128-n8:16:32:64-S128"
target triple = "x86_64-pc-linux-gnu"

%struct.ma_backend_info = type { i32, ptr }

; Function Attrs: nounwind uwtable
define hidden i32 @ma_get_backend_from_name(ptr noundef %0, ptr noundef %1) #0 {
  %3 = alloca i32, align 4
  %4 = alloca ptr, align 8
  %5 = alloca ptr, align 8
  %6 = alloca i64, align 8
  %7 = alloca i32, align 4
  store ptr %0, ptr %4, align 8
  store ptr %1, ptr %5, align 8
  call void @llvm.lifetime.start.p0(i64 8, ptr %6) #21
  %8 = load ptr, ptr %4, align 8
  %9 = icmp eq ptr %8, null
  br i1 %9, label %10, label %11

10:                                               ; preds = %2
  store i32 -2, ptr %3, align 4
  store i32 1, ptr %7, align 4
  br label %38

11:                                               ; preds = %2
  store i64 0, ptr %6, align 8
  br label %12

12:                                               ; preds = %34, %11
  %13 = load i64, ptr %6, align 8
  %14 = icmp ult i64 %13, 15
  br i1 %14, label %15, label %37

15:                                               ; preds = %12
  %16 = load ptr, ptr %4, align 8
  %17 = load i64, ptr %6, align 8
  %18 = getelementptr inbounds nuw [15 x %struct.ma_backend_info], ptr @gBackendInfo, i64 0, i64 %17
  %19 = getelementptr inbounds nuw %struct.ma_backend_info, ptr %18, i32 0, i32 1
  %20 = load ptr, ptr %19, align 8
  %21 = call i32 @ma_strcmp(ptr noundef %16, ptr noundef %20)
  %22 = icmp eq i32 %21, 0
  br i1 %22, label %23, label %33

23:                                               ; preds = %15
  %24 = load ptr, ptr %5, align 8
  %25 = icmp ne ptr %24, null
  br i1 %25, label %26, label %32

26:                                               ; preds = %23
  %27 = load i64, ptr %6, align 8
  %28 = getelementptr inbounds nuw [15 x %struct.ma_backend_info], ptr @gBackendInfo, i64 0, i64 %27
  %29 = getelementptr inbounds nuw %struct.ma_backend_info, ptr %28, i32 0, i32 0
  %30 = load i32, ptr %29, align 16
  %31 = load ptr, ptr %5, align 8
  store i32 %30, ptr %31, align 4
  br label %32

32:                                               ; preds = %26, %23
  store i32 0, ptr %3, align 4
  store i32 1, ptr %7, align 4
  br label %38

33:                                               ; preds = %15
  br label %34

34:                                               ; preds = %33
  %35 = load i64, ptr %6, align 8
  %36 = add i64 %35, 1
  store i64 %36, ptr %6, align 8
  br label %12

37:                                               ; preds = %12
  store i32 -2, ptr %3, align 4
  store i32 1, ptr %7, align 4
  br label %38

38:                                               ; preds = %37, %32, %10
  call void @llvm.lifetime.end.p0(i64 8, ptr %6) #21
  %39 = load i32, ptr %3, align 4
  ret i32 %39
}