; Function Attrs: nofree norecurse nosync nounwind memory(read, argmem: readwrite, inaccessiblemem: none) uwtable
define hidden range(i32 -2, 1) i32 @ma_get_backend_from_name(ptr noundef readonly captures(address) %0, ptr noundef writeonly captures(address_is_null) %1) local_unnamed_addr #20 {
  %3 = icmp eq ptr %0, null
  br i1 %3, label %.loopexit, label %.preheader

4:                                                ; preds = %.preheader
  %5 = add nuw nsw i64 %.011, 1
  %exitcond.not = icmp eq i64 %5, 15
  br i1 %exitcond.not, label %.loopexit, label %.preheader

.preheader:                                       ; preds = %2, %4
  %.011 = phi i64 [ %5, %4 ], [ 0, %2 ]
  %6 = getelementptr inbounds nuw [15 x %struct.ma_backend_info], ptr @gBackendInfo, i64 0, i64 %.011
  %7 = getelementptr inbounds nuw i8, ptr %6, i64 8
  %8 = load ptr, ptr %7, align 8
  %9 = tail call i32 @ma_strcmp(ptr noundef nonnull %0, ptr noundef %8)
  %10 = icmp eq i32 %9, 0
  br i1 %10, label %11, label %4

11:                                               ; preds = %.preheader
  %.not = icmp eq ptr %1, null
  br i1 %.not, label %.loopexit, label %12

12:                                               ; preds = %11
  %13 = load i32, ptr %6, align 16
  store i32 %13, ptr %1, align 4
  br label %.loopexit

.loopexit:                                        ; preds = %4, %11, %12, %2
  %.08 = phi i32 [ -2, %2 ], [ 0, %12 ], [ 0, %11 ], [ -2, %4 ]
  ret i32 %.08
}